; Function Attrs: mustprogress nounwind willreturn uwtable
define internal fastcc void @Vec_IntPushTwo(ptr noundef captures(none) %0, i32 noundef %1, i32 noundef %2) unnamed_addr #5 {
  %4 = getelementptr inbounds nuw i8, ptr %0, i64 4
  %5 = load i32, ptr %4, align 4
  %6 = load i32, ptr %0, align 8
  %7 = icmp eq i32 %5, %6
  br i1 %7, label %8, label %.Vec_IntGrow.exit10_crit_edge.i

.Vec_IntGrow.exit10_crit_edge.i:                  ; preds = %3
  %.phi.trans.insert.i = getelementptr inbounds nuw i8, ptr %0, i64 8
  %.pre.i = load ptr, ptr %.phi.trans.insert.i, align 8
  br label %Vec_IntPush.exit

8:                                                ; preds = %3
  %9 = icmp slt i32 %5, 16
  br i1 %9, label %10, label %18

10:                                               ; preds = %8
  %11 = getelementptr inbounds nuw i8, ptr %0, i64 8
  %12 = load ptr, ptr %11, align 8
  %.not9.i.i = icmp eq ptr %12, null
  br i1 %.not9.i.i, label %15, label %13

13:                                               ; preds = %10
  %14 = tail call dereferenceable_or_null(64) ptr @realloc(ptr noundef nonnull %12, i64 noundef 64) #28
  br label %Vec_IntGrow.exit.i

15:                                               ; preds = %10
  %16 = tail call noalias dereferenceable_or_null(64) ptr @malloc(i64 noundef 64) #27
  br label %Vec_IntGrow.exit.i

Vec_IntGrow.exit.i:                               ; preds = %15, %13
  %17 = phi ptr [ %14, %13 ], [ %16, %15 ]
  store ptr %17, ptr %11, align 8
  store i32 16, ptr %0, align 8
  br label %Vec_IntPush.exit

18:                                               ; preds = %8
  %19 = shl nuw nsw i32 %5, 1
  %20 = getelementptr inbounds nuw i8, ptr %0, i64 8
  %21 = load ptr, ptr %20, align 8
  %.not9.i9.i = icmp eq ptr %21, null
  %22 = zext nneg i32 %19 to i64
  %23 = shl nuw nsw i64 %22, 2
  br i1 %.not9.i9.i, label %26, label %24

24:                                               ; preds = %18
  %25 = tail call ptr @realloc(ptr noundef nonnull %21, i64 noundef %23) #28
  br label %28

26:                                               ; preds = %18
  %27 = tail call noalias ptr @malloc(i64 noundef %23) #27
  br label %28

28:                                               ; preds = %26, %24
  %29 = phi ptr [ %25, %24 ], [ %27, %26 ]
  store ptr %29, ptr %20, align 8
  store i32 %19, ptr %0, align 8
  br label %Vec_IntPush.exit

Vec_IntPush.exit:                                 ; preds = %.Vec_IntGrow.exit10_crit_edge.i, %Vec_IntGrow.exit.i, %28
  %30 = phi ptr [ %.pre.i, %.Vec_IntGrow.exit10_crit_edge.i ], [ %29, %28 ], [ %17, %Vec_IntGrow.exit.i ]
  %31 = load i32, ptr %4, align 4
  %32 = add nsw i32 %31, 1
  store i32 %32, ptr %4, align 4
  %33 = sext i32 %31 to i64
  %34 = getelementptr inbounds i32, ptr %30, i64 %33
  store i32 %1, ptr %34, align 4
  %35 = load i32, ptr %4, align 4
  %36 = load i32, ptr %0, align 8
  %37 = icmp eq i32 %35, %36
  br i1 %37, label %38, label %.Vec_IntGrow.exit10_crit_edge.i3

.Vec_IntGrow.exit10_crit_edge.i3:                 ; preds = %Vec_IntPush.exit
  %.phi.trans.insert.i4 = getelementptr inbounds nuw i8, ptr %0, i64 8
  %.pre.i5 = load ptr, ptr %.phi.trans.insert.i4, align 8
  br label %Vec_IntPush.exit9

38:                                               ; preds = %Vec_IntPush.exit
  %39 = icmp slt i32 %35, 16
  br i1 %39, label %40, label %48

40:                                               ; preds = %38
  %41 = getelementptr inbounds nuw i8, ptr %0, i64 8
  %42 = load ptr, ptr %41, align 8
  %.not9.i.i7 = icmp eq ptr %42, null
  br i1 %.not9.i.i7, label %45, label %43

43:                                               ; preds = %40
  %44 = tail call dereferenceable_or_null(64) ptr @realloc(ptr noundef nonnull %42, i64 noundef 64) #28
  br label %Vec_IntGrow.exit.i8

45:                                               ; preds = %40
  %46 = tail call noalias dereferenceable_or_null(64) ptr @malloc(i64 noundef 64) #27
  br label %Vec_IntGrow.exit.i8

Vec_IntGrow.exit.i8:                              ; preds = %45, %43
  %47 = phi ptr [ %44, %43 ], [ %46, %45 ]
  store ptr %47, ptr %41, align 8
  store i32 16, ptr %0, align 8
  br label %Vec_IntPush.exit9

48:                                               ; preds = %38
  %49 = shl nuw nsw i32 %35, 1
  %50 = getelementptr inbounds nuw i8, ptr %0, i64 8
  %51 = load ptr, ptr %50, align 8
  %.not9.i9.i6 = icmp eq ptr %51, null
  %52 = zext nneg i32 %49 to i64
  %53 = shl nuw nsw i64 %52, 2
  br i1 %.not9.i9.i6, label %56, label %54

54:                                               ; preds = %48
  %55 = tail call ptr @realloc(ptr noundef nonnull %51, i64 noundef %53) #28
  br label %58

56:                                               ; preds = %48
  %57 = tail call noalias ptr @malloc(i64 noundef %53) #27
  br label %58

58:                                               ; preds = %56, %54
  %59 = phi ptr [ %55, %54 ], [ %57, %56 ]
  store ptr %59, ptr %50, align 8
  store i32 %49, ptr %0, align 8
  br label %Vec_IntPush.exit9

Vec_IntPush.exit9:                                ; preds = %.Vec_IntGrow.exit10_crit_edge.i3, %Vec_IntGrow.exit.i8, %58
  %60 = phi ptr [ %.pre.i5, %.Vec_IntGrow.exit10_crit_edge.i3 ], [ %59, %58 ], [ %47, %Vec_IntGrow.exit.i8 ]
  %61 = load i32, ptr %4, align 4
  %62 = add nsw i32 %61, 1
  store i32 %62, ptr %4, align 4
  %63 = sext i32 %61 to i64
  %64 = getelementptr inbounds i32, ptr %60, i64 %63
  store i32 %2, ptr %64, align 4
  ret void
}